target datalayout = "e-m:e-p270:32:32-p271:32:32-p272:64:64-i64:64-f80:128-n8:16:32:64-S128"
target triple = "x86_64-pc-linux-gnu"

@.str = private unnamed_addr constant [6 x i8] c"%d %d\00", align 1
@.str.1 = private unnamed_addr constant [4 x i8] c"%d\0A\00", align 1
@.str.2 = private unnamed_addr constant [4 x i8] c"%d \00", align 1

; Function Attrs: noinline nounwind uwtable
define dso_local i32 @main() #0 {
  %1 = alloca i32, align 4
  %2 = alloca i32, align 4
  %3 = alloca i32, align 4
  %4 = alloca i32, align 4
  %5 = alloca i32, align 4
  %6 = alloca i32, align 4
  %7 = alloca i32, align 4
  %8 = alloca i32, align 4
  %9 = alloca [10 x [10 x i32]], align 16
  %10 = alloca [10 x [10 x i32]], align 16
  store i32 0, i32* %1, align 4
  %11 = call i32 (i8*, ...) @__isoc99_scanf(i8* getelementptr inbounds ([6 x i8], [6 x i8]* @.str, i64 0, i64 0), i32* %2, i32* %3)
  %12 = bitcast [10 x [10 x i32]]* %9 to i8*
  call void @llvm.memset.p0i8.i64(i8* align 16 %12, i8 0, i64 400, i1 false)
  %13 = bitcast [10 x [10 x i32]]* %10 to i8*
  call void @llvm.memset.p0i8.i64(i8* align 16 %13, i8 0, i64 400, i1 false)
  %14 = load i32, i32* %2, align 4
  %15 = getelementptr inbounds [10 x [10 x i32]], [10 x [10 x i32]]* %9, i64 0, i64 4
  %16 = getelementptr inbounds [10 x i32], [10 x i32]* %15, i64 0, i64 4
  store i32 %14, i32* %16, align 16
  %17 = load i32, i32* %2, align 4
  %18 = getelementptr inbounds [10 x [10 x i32]], [10 x [10 x i32]]* %10, i64 0, i64 4
  %19 = getelementptr inbounds [10 x i32], [10 x i32]* %18, i64 0, i64 4
  store i32 %17, i32* %19, align 16
  store i32 1, i32* %6, align 4
  br label %20

20:                                               ; preds = %227, %0
  %21 = load i32, i32* %6, align 4
  %22 = load i32, i32* %3, align 4
  %23 = icmp sle i32 %21, %22
  br i1 %23, label %24, label %230

24:                                               ; preds = %20
  store i32 0, i32* %4, align 4
  br label %25

25:                                               ; preds = %194, %24
  %26 = load i32, i32* %4, align 4
  %27 = icmp slt i32 %26, 9
  br i1 %27, label %28, label %197

28:                                               ; preds = %25
  store i32 0, i32* %5, align 4
  br label %29

29:                                               ; preds = %190, %28
  %30 = load i32, i32* %5, align 4
  %31 = icmp slt i32 %30, 9
  br i1 %31, label %32, label %193

32:                                               ; preds = %29
  %33 = load i32, i32* %4, align 4
  %34 = sext i32 %33 to i64
  %35 = getelementptr inbounds [10 x [10 x i32]], [10 x [10 x i32]]* %10, i64 0, i64 %34
  %36 = load i32, i32* %5, align 4
  %37 = sext i32 %36 to i64
  %38 = getelementptr inbounds [10 x i32], [10 x i32]* %35, i64 0, i64 %37
  %39 = load i32, i32* %38, align 4
  %40 = icmp ne i32 %39, 0
  br i1 %40, label %41, label %189

41:                                               ; preds = %32
  %42 = load i32, i32* %4, align 4
  %43 = sext i32 %42 to i64
  %44 = getelementptr inbounds [10 x [10 x i32]], [10 x [10 x i32]]* %10, i64 0, i64 %43
  %45 = load i32, i32* %5, align 4
  %46 = sext i32 %45 to i64
  %47 = getelementptr inbounds [10 x i32], [10 x i32]* %44, i64 0, i64 %46
  %48 = load i32, i32* %47, align 4
  %49 = load i32, i32* %4, align 4
  %50 = sext i32 %49 to i64
  %51 = getelementptr inbounds [10 x [10 x i32]], [10 x [10 x i32]]* %9, i64 0, i64 %50
  %52 = load i32, i32* %5, align 4
  %53 = sext i32 %52 to i64
  %54 = getelementptr inbounds [10 x i32], [10 x i32]* %51, i64 0, i64 %53
  %55 = load i32, i32* %54, align 4
  %56 = add nsw i32 %55, %48
  store i32 %56, i32* %54, align 4
  %57 = load i32, i32* %4, align 4
  %58 = sext i32 %57 to i64
  %59 = getelementptr inbounds [10 x [10 x i32]], [10 x [10 x i32]]* %10, i64 0, i64 %58
  %60 = load i32, i32* %5, align 4
  %61 = sext i32 %60 to i64
  %62 = getelementptr inbounds [10 x i32], [10 x i32]* %59, i64 0, i64 %61
  %63 = load i32, i32* %62, align 4
  %64 = load i32, i32* %4, align 4
  %65 = sub nsw i32 %64, 1
  %66 = sext i32 %65 to i64
  %67 = getelementptr inbounds [10 x [10 x i32]], [10 x [10 x i32]]* %9, i64 0, i64 %66
  %68 = load i32, i32* %5, align 4
  %69 = sub nsw i32 %68, 1
  %70 = sext i32 %69 to i64
  %71 = getelementptr inbounds [10 x i32], [10 x i32]* %67, i64 0, i64 %70
  %72 = load i32, i32* %71, align 4
  %73 = add nsw i32 %72, %63
  store i32 %73, i32* %71, align 4
  %74 = load i32, i32* %4, align 4
  %75 = sext i32 %74 to i64
  %76 = getelementptr inbounds [10 x [10 x i32]], [10 x [10 x i32]]* %10, i64 0, i64 %75
  %77 = load i32, i32* %5, align 4
  %78 = sext i32 %77 to i64
  %79 = getelementptr inbounds [10 x i32], [10 x i32]* %76, i64 0, i64 %78
  %80 = load i32, i32* %79, align 4
  %81 = load i32, i32* %4, align 4
  %82 = sub nsw i32 %81, 1
  %83 = sext i32 %82 to i64
  %84 = getelementptr inbounds [10 x [10 x i32]], [10 x [10 x i32]]* %9, i64 0, i64 %83
  %85 = load i32, i32* %5, align 4
  %86 = sext i32 %85 to i64
  %87 = getelementptr inbounds [10 x i32], [10 x i32]* %84, i64 0, i64 %86
  %88 = load i32, i32* %87, align 4
  %89 = add nsw i32 %88, %80
  store i32 %89, i32* %87, align 4
  %90 = load i32, i32* %4, align 4
  %91 = sext i32 %90 to i64
  %92 = getelementptr inbounds [10 x [10 x i32]], [10 x [10 x i32]]* %10, i64 0, i64 %91
  %93 = load i32, i32* %5, align 4
  %94 = sext i32 %93 to i64
  %95 = getelementptr inbounds [10 x i32], [10 x i32]* %92, i64 0, i64 %94
  %96 = load i32, i32* %95, align 4
  %97 = load i32, i32* %4, align 4
  %98 = sub nsw i32 %97, 1
  %99 = sext i32 %98 to i64
  %100 = getelementptr inbounds [10 x [10 x i32]], [10 x [10 x i32]]* %9, i64 0, i64 %99
  %101 = load i32, i32* %5, align 4
  %102 = add nsw i32 %101, 1
  %103 = sext i32 %102 to i64
  %104 = getelementptr inbounds [10 x i32], [10 x i32]* %100, i64 0, i64 %103
  %105 = load i32, i32* %104, align 4
  %106 = add nsw i32 %105, %96
  store i32 %106, i32* %104, align 4
  %107 = load i32, i32* %4, align 4
  %108 = sext i32 %107 to i64
  %109 = getelementptr inbounds [10 x [10 x i32]], [10 x [10 x i32]]* %10, i64 0, i64 %108
  %110 = load i32, i32* %5, align 4
  %111 = sext i32 %110 to i64
  %112 = getelementptr inbounds [10 x i32], [10 x i32]* %109, i64 0, i64 %111
  %113 = load i32, i32* %112, align 4
  %114 = load i32, i32* %4, align 4
  %115 = sext i32 %114 to i64
  %116 = getelementptr inbounds [10 x [10 x i32]], [10 x [10 x i32]]* %9, i64 0, i64 %115
  %117 = load i32, i32* %5, align 4
  %118 = sub nsw i32 %117, 1
  %119 = sext i32 %118 to i64
  %120 = getelementptr inbounds [10 x i32], [10 x i32]* %116, i64 0, i64 %119
  %121 = load i32, i32* %120, align 4
  %122 = add nsw i32 %121, %113
  store i32 %122, i32* %120, align 4
  %123 = load i32, i32* %4, align 4
  %124 = sext i32 %123 to i64
  %125 = getelementptr inbounds [10 x [10 x i32]], [10 x [10 x i32]]* %10, i64 0, i64 %124
  %126 = load i32, i32* %5, align 4
  %127 = sext i32 %126 to i64
  %128 = getelementptr inbounds [10 x i32], [10 x i32]* %125, i64 0, i64 %127
  %129 = load i32, i32* %128, align 4
  %130 = load i32, i32* %4, align 4
  %131 = sext i32 %130 to i64
  %132 = getelementptr inbounds [10 x [10 x i32]], [10 x [10 x i32]]* %9, i64 0, i64 %131
  %133 = load i32, i32* %5, align 4
  %134 = add nsw i32 %133, 1
  %135 = sext i32 %134 to i64
  %136 = getelementptr inbounds [10 x i32], [10 x i32]* %132, i64 0, i64 %135
  %137 = load i32, i32* %136, align 4
  %138 = add nsw i32 %137, %129
  store i32 %138, i32* %136, align 4
  %139 = load i32, i32* %4, align 4
  %140 = sext i32 %139 to i64
  %141 = getelementptr inbounds [10 x [10 x i32]], [10 x [10 x i32]]* %10, i64 0, i64 %140
  %142 = load i32, i32* %5, align 4
  %143 = sext i32 %142 to i64
  %144 = getelementptr inbounds [10 x i32], [10 x i32]* %141, i64 0, i64 %143
  %145 = load i32, i32* %144, align 4
  %146 = load i32, i32* %4, align 4
  %147 = add nsw i32 %146, 1
  %148 = sext i32 %147 to i64
  %149 = getelementptr inbounds [10 x [10 x i32]], [10 x [10 x i32]]* %9, i64 0, i64 %148
  %150 = load i32, i32* %5, align 4
  %151 = sub nsw i32 %150, 1
  %152 = sext i32 %151 to i64
  %153 = getelementptr inbounds [10 x i32], [10 x i32]* %149, i64 0, i64 %152
  %154 = load i32, i32* %153, align 4
  %155 = add nsw i32 %154, %145
  store i32 %155, i32* %153, align 4
  %156 = load i32, i32* %4, align 4
  %157 = sext i32 %156 to i64
  %158 = getelementptr inbounds [10 x [10 x i32]], [10 x [10 x i32]]* %10, i64 0, i64 %157
  %159 = load i32, i32* %5, align 4
  %160 = sext i32 %159 to i64
  %161 = getelementptr inbounds [10 x i32], [10 x i32]* %158, i64 0, i64 %160
  %162 = load i32, i32* %161, align 4
  %163 = load i32, i32* %4, align 4
  %164 = add nsw i32 %163, 1
  %165 = sext i32 %164 to i64
  %166 = getelementptr inbounds [10 x [10 x i32]], [10 x [10 x i32]]* %9, i64 0, i64 %165
  %167 = load i32, i32* %5, align 4
  %168 = sext i32 %167 to i64
  %169 = getelementptr inbounds [10 x i32], [10 x i32]* %166, i64 0, i64 %168
  %170 = load i32, i32* %169, align 4
  %171 = add nsw i32 %170, %162
  store i32 %171, i32* %169, align 4
  %172 = load i32, i32* %4, align 4
  %173 = sext i32 %172 to i64
  %174 = getelementptr inbounds [10 x [10 x i32]], [10 x [10 x i32]]* %10, i64 0, i64 %173
  %175 = load i32, i32* %5, align 4
  %176 = sext i32 %175 to i64
  %177 = getelementptr inbounds [10 x i32], [10 x i32]* %174, i64 0, i64 %176
  %178 = load i32, i32* %177, align 4
  %179 = load i32, i32* %4, align 4
  %180 = add nsw i32 %179, 1
  %181 = sext i32 %180 to i64
  %182 = getelementptr inbounds [10 x [10 x i32]], [10 x [10 x i32]]* %9, i64 0, i64 %181
  %183 = load i32, i32* %5, align 4
  %184 = add nsw i32 %183, 1
  %185 = sext i32 %184 to i64
  %186 = getelementptr inbounds [10 x i32], [10 x i32]* %182, i64 0, i64 %185
  %187 = load i32, i32* %186, align 4
  %188 = add nsw i32 %187, %178
  store i32 %188, i32* %186, align 4
  br label %189

189:                                              ; preds = %41, %32
  br label %190

190:                                              ; preds = %189
  %191 = load i32, i32* %5, align 4
  %192 = add nsw i32 %191, 1
  store i32 %192, i32* %5, align 4
  br label %29

193:                                              ; preds = %29
  br label %194

194:                                              ; preds = %193
  %195 = load i32, i32* %4, align 4
  %196 = add nsw i32 %195, 1
  store i32 %196, i32* %4, align 4
  br label %25

197:                                              ; preds = %25
  store i32 0, i32* %7, align 4
  br label %198

198:                                              ; preds = %223, %197
  %199 = load i32, i32* %7, align 4
  %200 = icmp slt i32 %199, 9
  br i1 %200, label %201, label %226

201:                                              ; preds = %198
  store i32 0, i32* %8, align 4
  br label %202

202:                                              ; preds = %219, %201
  %203 = load i32, i32* %8, align 4
  %204 = icmp slt i32 %203, 9
  br i1 %204, label %205, label %222

205:                                              ; preds = %202
  %206 = load i32, i32* %7, align 4
  %207 = sext i32 %206 to i64
  %208 = getelementptr inbounds [10 x [10 x i32]], [10 x [10 x i32]]* %9, i64 0, i64 %207
  %209 = load i32, i32* %8, align 4
  %210 = sext i32 %209 to i64
  %211 = getelementptr inbounds [10 x i32], [10 x i32]* %208, i64 0, i64 %210
  %212 = load i32, i32* %211, align 4
  %213 = load i32, i32* %7, align 4
  %214 = sext i32 %213 to i64
  %215 = getelementptr inbounds [10 x [10 x i32]], [10 x [10 x i32]]* %10, i64 0, i64 %214
  %216 = load i32, i32* %8, align 4
  %217 = sext i32 %216 to i64
  %218 = getelementptr inbounds [10 x i32], [10 x i32]* %215, i64 0, i64 %217
  store i32 %212, i32* %218, align 4
  br label %219

219:                                              ; preds = %205
  %220 = load i32, i32* %8, align 4
  %221 = add nsw i32 %220, 1
  store i32 %221, i32* %8, align 4
  br label %202

222:                                              ; preds = %202
  br label %223

223:                                              ; preds = %222
  %224 = load i32, i32* %7, align 4
  %225 = add nsw i32 %224, 1
  store i32 %225, i32* %7, align 4
  br label %198

226:                                              ; preds = %198
  br label %227

227:                                              ; preds = %226
  %228 = load i32, i32* %6, align 4
  %229 = add nsw i32 %228, 1
  store i32 %229, i32* %6, align 4
  br label %20

230:                                              ; preds = %20
  store i32 0, i32* %4, align 4
  br label %231

231:                                              ; preds = %264, %230
  %232 = load i32, i32* %4, align 4
  %233 = icmp slt i32 %232, 9
  br i1 %233, label %234, label %267

234:                                              ; preds = %231
  store i32 0, i32* %5, align 4
  br label %235

235:                                              ; preds = %260, %234
  %236 = load i32, i32* %5, align 4
  %237 = icmp slt i32 %236, 9
  br i1 %237, label %238, label %263

238:                                              ; preds = %235
  %239 = load i32, i32* %5, align 4
  %240 = icmp eq i32 %239, 8
  br i1 %240, label %241, label %250

241:                                              ; preds = %238
  %242 = load i32, i32* %4, align 4
  %243 = sext i32 %242 to i64
  %244 = getelementptr inbounds [10 x [10 x i32]], [10 x [10 x i32]]* %9, i64 0, i64 %243
  %245 = load i32, i32* %5, align 4
  %246 = sext i32 %245 to i64
  %247 = getelementptr inbounds [10 x i32], [10 x i32]* %244, i64 0, i64 %246
  %248 = load i32, i32* %247, align 4
  %249 = call i32 (i8*, ...) @printf(i8* getelementptr inbounds ([4 x i8], [4 x i8]* @.str.1, i64 0, i64 0), i32 %248)
  br label %259

250:                                              ; preds = %238
  %251 = load i32, i32* %4, align 4
  %252 = sext i32 %251 to i64
  %253 = getelementptr inbounds [10 x [10 x i32]], [10 x [10 x i32]]* %9, i64 0, i64 %252
  %254 = load i32, i32* %5, align 4
  %255 = sext i32 %254 to i64
  %256 = getelementptr inbounds [10 x i32], [10 x i32]* %253, i64 0, i64 %255
  %257 = load i32, i32* %256, align 4
  %258 = call i32 (i8*, ...) @printf(i8* getelementptr inbounds ([4 x i8], [4 x i8]* @.str.2, i64 0, i64 0), i32 %257)
  br label %259

259:                                              ; preds = %250, %241
  br label %260

260:                                              ; preds = %259
  %261 = load i32, i32* %5, align 4
  %262 = add nsw i32 %261, 1
  store i32 %262, i32* %5, align 4
  br label %235

263:                                              ; preds = %235
  br label %264

264:                                              ; preds = %263
  %265 = load i32, i32* %4, align 4
  %266 = add nsw i32 %265, 1
  store i32 %266, i32* %4, align 4
  br label %231

267:                                              ; preds = %231
  ret i32 0
}