; Function Attrs: nofree nounwind sspstrong uwtable
define dso_local i32 @main() local_unnamed_addr #0 {
  %1 = alloca i32, align 4
  %2 = alloca i32, align 4
  %3 = alloca [10 x [10 x i32]], align 16
  %4 = alloca [10 x [10 x i32]], align 16
  %5 = bitcast i32* %1 to i8*
  call void @llvm.lifetime.start.p0i8(i64 4, i8* nonnull %5) #5
  %6 = bitcast i32* %2 to i8*
  call void @llvm.lifetime.start.p0i8(i64 4, i8* nonnull %6) #5
  %7 = call i32 (i8*, ...) @__isoc99_scanf(i8* getelementptr inbounds ([6 x i8], [6 x i8]* @.str, i64 0, i64 0), i32* nonnull %1, i32* nonnull %2)
  %8 = bitcast [10 x [10 x i32]]* %3 to i8*
  call void @llvm.lifetime.start.p0i8(i64 400, i8* nonnull %8) #5
  call void @llvm.memset.p0i8.i64(i8* noundef nonnull align 16 dereferenceable(400) %8, i8 0, i64 400, i1 false)
  %9 = bitcast [10 x [10 x i32]]* %4 to i8*
  call void @llvm.lifetime.start.p0i8(i64 400, i8* nonnull %9) #5
  call void @llvm.memset.p0i8.i64(i8* noundef nonnull align 16 dereferenceable(400) %9, i8 0, i64 400, i1 false)
  %10 = load i32, i32* %1, align 4, !tbaa !5
  %11 = getelementptr inbounds [10 x [10 x i32]], [10 x [10 x i32]]* %3, i64 0, i64 4, i64 4
  store i32 %10, i32* %11, align 16, !tbaa !5
  %12 = getelementptr inbounds [10 x [10 x i32]], [10 x [10 x i32]]* %4, i64 0, i64 4, i64 4
  store i32 %10, i32* %12, align 16, !tbaa !5
  %13 = load i32, i32* %2, align 4, !tbaa !5
  %14 = icmp slt i32 %13, 1
  br i1 %14, label %15, label %16

15:                                               ; preds = %99, %0
  br label %103

16:                                               ; preds = %0
  %17 = bitcast [10 x [10 x i32]]* %4 to i8*
  %18 = bitcast [10 x [10 x i32]]* %3 to i8*
  %19 = getelementptr inbounds [10 x [10 x i32]], [10 x [10 x i32]]* %4, i64 0, i64 1, i64 0
  %20 = bitcast i32* %19 to i8*
  %21 = getelementptr inbounds [10 x [10 x i32]], [10 x [10 x i32]]* %3, i64 0, i64 1, i64 0
  %22 = bitcast i32* %21 to i8*
  %23 = getelementptr inbounds [10 x [10 x i32]], [10 x [10 x i32]]* %4, i64 0, i64 2, i64 0
  %24 = bitcast i32* %23 to i8*
  %25 = getelementptr inbounds [10 x [10 x i32]], [10 x [10 x i32]]* %3, i64 0, i64 2, i64 0
  %26 = bitcast i32* %25 to i8*
  %27 = getelementptr inbounds [10 x [10 x i32]], [10 x [10 x i32]]* %4, i64 0, i64 3, i64 0
  %28 = bitcast i32* %27 to i8*
  %29 = getelementptr inbounds [10 x [10 x i32]], [10 x [10 x i32]]* %3, i64 0, i64 3, i64 0
  %30 = bitcast i32* %29 to i8*
  %31 = getelementptr inbounds [10 x [10 x i32]], [10 x [10 x i32]]* %4, i64 0, i64 4, i64 0
  %32 = bitcast i32* %31 to i8*
  %33 = getelementptr inbounds [10 x [10 x i32]], [10 x [10 x i32]]* %3, i64 0, i64 4, i64 0
  %34 = bitcast i32* %33 to i8*
  %35 = getelementptr inbounds [10 x [10 x i32]], [10 x [10 x i32]]* %4, i64 0, i64 5, i64 0
  %36 = bitcast i32* %35 to i8*
  %37 = getelementptr inbounds [10 x [10 x i32]], [10 x [10 x i32]]* %3, i64 0, i64 5, i64 0
  %38 = bitcast i32* %37 to i8*
  %39 = getelementptr inbounds [10 x [10 x i32]], [10 x [10 x i32]]* %4, i64 0, i64 6, i64 0
  %40 = bitcast i32* %39 to i8*
  %41 = getelementptr inbounds [10 x [10 x i32]], [10 x [10 x i32]]* %3, i64 0, i64 6, i64 0
  %42 = bitcast i32* %41 to i8*
  %43 = getelementptr inbounds [10 x [10 x i32]], [10 x [10 x i32]]* %4, i64 0, i64 7, i64 0
  %44 = bitcast i32* %43 to i8*
  %45 = getelementptr inbounds [10 x [10 x i32]], [10 x [10 x i32]]* %3, i64 0, i64 7, i64 0
  %46 = bitcast i32* %45 to i8*
  %47 = getelementptr inbounds [10 x [10 x i32]], [10 x [10 x i32]]* %4, i64 0, i64 8, i64 0
  %48 = bitcast i32* %47 to i8*
  %49 = getelementptr inbounds [10 x [10 x i32]], [10 x [10 x i32]]* %3, i64 0, i64 8, i64 0
  %50 = bitcast i32* %49 to i8*
  br label %51

51:                                               ; preds = %16, %99
  %52 = phi i32 [ %100, %99 ], [ 1, %16 ]
  br label %53

53:                                               ; preds = %51, %97
  %54 = phi i64 [ 0, %51 ], [ %56, %97 ]
  %55 = add nsw i64 %54, -1
  %56 = add nuw nsw i64 %54, 1
  br label %57

57:                                               ; preds = %53, %94
  %58 = phi i64 [ 0, %53 ], [ %95, %94 ]
  %59 = getelementptr inbounds [10 x [10 x i32]], [10 x [10 x i32]]* %4, i64 0, i64 %54, i64 %58
  %60 = load i32, i32* %59, align 4, !tbaa !5
  %61 = icmp eq i32 %60, 0
  br i1 %61, label %62, label %64

62:                                               ; preds = %57
  %63 = add nuw nsw i64 %58, 1
  br label %94

64:                                               ; preds = %57
  %65 = getelementptr inbounds [10 x [10 x i32]], [10 x [10 x i32]]* %3, i64 0, i64 %54, i64 %58
  %66 = load i32, i32* %65, align 4, !tbaa !5
  %67 = add nsw i32 %66, %60
  store i32 %67, i32* %65, align 4, !tbaa !5
  %68 = add nsw i64 %58, -1
  %69 = getelementptr inbounds [10 x [10 x i32]], [10 x [10 x i32]]* %3, i64 0, i64 %55, i64 %68
  %70 = load i32, i32* %69, align 4, !tbaa !5
  %71 = add nsw i32 %70, %60
  store i32 %71, i32* %69, align 4, !tbaa !5
  %72 = getelementptr inbounds [10 x [10 x i32]], [10 x [10 x i32]]* %3, i64 0, i64 %55, i64 %58
  %73 = load i32, i32* %72, align 4, !tbaa !5
  %74 = add nsw i32 %73, %60
  store i32 %74, i32* %72, align 4, !tbaa !5
  %75 = add nuw nsw i64 %58, 1
  %76 = getelementptr inbounds [10 x [10 x i32]], [10 x [10 x i32]]* %3, i64 0, i64 %55, i64 %75
  %77 = load i32, i32* %76, align 4, !tbaa !5
  %78 = add nsw i32 %77, %60
  store i32 %78, i32* %76, align 4, !tbaa !5
  %79 = getelementptr inbounds [10 x [10 x i32]], [10 x [10 x i32]]* %3, i64 0, i64 %54, i64 %68
  %80 = load i32, i32* %79, align 4, !tbaa !5
  %81 = add nsw i32 %80, %60
  store i32 %81, i32* %79, align 4, !tbaa !5
  %82 = getelementptr inbounds [10 x [10 x i32]], [10 x [10 x i32]]* %3, i64 0, i64 %54, i64 %75
  %83 = load i32, i32* %82, align 4, !tbaa !5
  %84 = add nsw i32 %83, %60
  store i32 %84, i32* %82, align 4, !tbaa !5
  %85 = getelementptr inbounds [10 x [10 x i32]], [10 x [10 x i32]]* %3, i64 0, i64 %56, i64 %68
  %86 = load i32, i32* %85, align 4, !tbaa !5
  %87 = add nsw i32 %86, %60
  store i32 %87, i32* %85, align 4, !tbaa !5
  %88 = getelementptr inbounds [10 x [10 x i32]], [10 x [10 x i32]]* %3, i64 0, i64 %56, i64 %58
  %89 = load i32, i32* %88, align 4, !tbaa !5
  %90 = add nsw i32 %89, %60
  store i32 %90, i32* %88, align 4, !tbaa !5
  %91 = getelementptr inbounds [10 x [10 x i32]], [10 x [10 x i32]]* %3, i64 0, i64 %56, i64 %75
  %92 = load i32, i32* %91, align 4, !tbaa !5
  %93 = add nsw i32 %92, %60
  store i32 %93, i32* %91, align 4, !tbaa !5
  br label %94

94:                                               ; preds = %62, %64
  %95 = phi i64 [ %63, %62 ], [ %75, %64 ]
  %96 = icmp eq i64 %95, 9
  br i1 %96, label %97, label %57, !llvm.loop !9

97:                                               ; preds = %94
  %98 = icmp eq i64 %56, 9
  br i1 %98, label %99, label %53, !llvm.loop !11

99:                                               ; preds = %97
  call void @llvm.memcpy.p0i8.p0i8.i64(i8* noundef nonnull align 16 dereferenceable(36) %17, i8* noundef nonnull align 16 dereferenceable(36) %18, i64 36, i1 false)
  call void @llvm.memcpy.p0i8.p0i8.i64(i8* noundef nonnull align 8 dereferenceable(36) %20, i8* noundef nonnull align 8 dereferenceable(36) %22, i64 36, i1 false)
  call void @llvm.memcpy.p0i8.p0i8.i64(i8* noundef nonnull align 16 dereferenceable(36) %24, i8* noundef nonnull align 16 dereferenceable(36) %26, i64 36, i1 false)
  call void @llvm.memcpy.p0i8.p0i8.i64(i8* noundef nonnull align 8 dereferenceable(36) %28, i8* noundef nonnull align 8 dereferenceable(36) %30, i64 36, i1 false)
  call void @llvm.memcpy.p0i8.p0i8.i64(i8* noundef nonnull align 16 dereferenceable(36) %32, i8* noundef nonnull align 16 dereferenceable(36) %34, i64 36, i1 false)
  call void @llvm.memcpy.p0i8.p0i8.i64(i8* noundef nonnull align 8 dereferenceable(36) %36, i8* noundef nonnull align 8 dereferenceable(36) %38, i64 36, i1 false)
  call void @llvm.memcpy.p0i8.p0i8.i64(i8* noundef nonnull align 16 dereferenceable(36) %40, i8* noundef nonnull align 16 dereferenceable(36) %42, i64 36, i1 false)
  call void @llvm.memcpy.p0i8.p0i8.i64(i8* noundef nonnull align 8 dereferenceable(36) %44, i8* noundef nonnull align 8 dereferenceable(36) %46, i64 36, i1 false)
  call void @llvm.memcpy.p0i8.p0i8.i64(i8* noundef nonnull align 16 dereferenceable(36) %48, i8* noundef nonnull align 16 dereferenceable(36) %50, i64 36, i1 false)
  %100 = add nuw i32 %52, 1
  %101 = icmp eq i32 %52, %13
  br i1 %101, label %15, label %51, !llvm.loop !12

102:                                              ; preds = %103
  call void @llvm.lifetime.end.p0i8(i64 400, i8* nonnull %9) #5
  call void @llvm.lifetime.end.p0i8(i64 400, i8* nonnull %8) #5
  call void @llvm.lifetime.end.p0i8(i64 4, i8* nonnull %6) #5
  call void @llvm.lifetime.end.p0i8(i64 4, i8* nonnull %5) #5
  ret i32 0

103:                                              ; preds = %15, %103
  %104 = phi i64 [ %132, %103 ], [ 0, %15 ]
  %105 = getelementptr inbounds [10 x [10 x i32]], [10 x [10 x i32]]* %3, i64 0, i64 %104, i64 8
  %106 = getelementptr inbounds [10 x [10 x i32]], [10 x [10 x i32]]* %3, i64 0, i64 %104, i64 0
  %107 = load i32, i32* %106, align 8, !tbaa !5
  %108 = call i32 (i8*, ...) @printf(i8* nonnull dereferenceable(1) getelementptr inbounds ([4 x i8], [4 x i8]* @.str.2, i64 0, i64 0), i32 %107)
  %109 = getelementptr inbounds [10 x [10 x i32]], [10 x [10 x i32]]* %3, i64 0, i64 %104, i64 1
  %110 = load i32, i32* %109, align 4, !tbaa !5
  %111 = call i32 (i8*, ...) @printf(i8* nonnull dereferenceable(1) getelementptr inbounds ([4 x i8], [4 x i8]* @.str.2, i64 0, i64 0), i32 %110)
  %112 = getelementptr inbounds [10 x [10 x i32]], [10 x [10 x i32]]* %3, i64 0, i64 %104, i64 2
  %113 = load i32, i32* %112, align 8, !tbaa !5
  %114 = call i32 (i8*, ...) @printf(i8* nonnull dereferenceable(1) getelementptr inbounds ([4 x i8], [4 x i8]* @.str.2, i64 0, i64 0), i32 %113)
  %115 = getelementptr inbounds [10 x [10 x i32]], [10 x [10 x i32]]* %3, i64 0, i64 %104, i64 3
  %116 = load i32, i32* %115, align 4, !tbaa !5
  %117 = call i32 (i8*, ...) @printf(i8* nonnull dereferenceable(1) getelementptr inbounds ([4 x i8], [4 x i8]* @.str.2, i64 0, i64 0), i32 %116)
  %118 = getelementptr inbounds [10 x [10 x i32]], [10 x [10 x i32]]* %3, i64 0, i64 %104, i64 4
  %119 = load i32, i32* %118, align 8, !tbaa !5
  %120 = call i32 (i8*, ...) @printf(i8* nonnull dereferenceable(1) getelementptr inbounds ([4 x i8], [4 x i8]* @.str.2, i64 0, i64 0), i32 %119)
  %121 = getelementptr inbounds [10 x [10 x i32]], [10 x [10 x i32]]* %3, i64 0, i64 %104, i64 5
  %122 = load i32, i32* %121, align 4, !tbaa !5
  %123 = call i32 (i8*, ...) @printf(i8* nonnull dereferenceable(1) getelementptr inbounds ([4 x i8], [4 x i8]* @.str.2, i64 0, i64 0), i32 %122)
  %124 = getelementptr inbounds [10 x [10 x i32]], [10 x [10 x i32]]* %3, i64 0, i64 %104, i64 6
  %125 = load i32, i32* %124, align 8, !tbaa !5
  %126 = call i32 (i8*, ...) @printf(i8* nonnull dereferenceable(1) getelementptr inbounds ([4 x i8], [4 x i8]* @.str.2, i64 0, i64 0), i32 %125)
  %127 = getelementptr inbounds [10 x [10 x i32]], [10 x [10 x i32]]* %3, i64 0, i64 %104, i64 7
  %128 = load i32, i32* %127, align 4, !tbaa !5
  %129 = call i32 (i8*, ...) @printf(i8* nonnull dereferenceable(1) getelementptr inbounds ([4 x i8], [4 x i8]* @.str.2, i64 0, i64 0), i32 %128)
  %130 = load i32, i32* %105, align 8, !tbaa !5
  %131 = call i32 (i8*, ...) @printf(i8* nonnull dereferenceable(1) getelementptr inbounds ([4 x i8], [4 x i8]* @.str.1, i64 0, i64 0), i32 %130)
  %132 = add nuw nsw i64 %104, 1
  %133 = icmp eq i64 %132, 9
  br i1 %133, label %102, label %103, !llvm.loop !13
}